target datalayout = "e-m:e-p270:32:32-p271:32:32-p272:64:64-i64:64-i128:128-f80:128-n8:16:32:64-S128"
target triple = "x86_64-pc-linux-gnu"

%struct.persist_conn_t = type { ptr, i32, i32, i8, ptr, ptr, ptr, i64, i16, i32, i16, i8, i32, i32, ptr, i16, ptr, i64, i32, ptr, %struct.slurm_trigger_callbacks_t, i16 }
%struct.slurm_trigger_callbacks_t = type { ptr, ptr, ptr, ptr, ptr }
%struct.rc_msg_t = type { ptr, i32 }

@slurmdbd_conn = dso_local global ptr null, align 8
@agent_list = internal global ptr null, align 8
@.str.40 = private unnamed_addr constant [38 x i8] c"DBD_GOT_MULT_MSG unpack message error\00", align 1

; Function Attrs: nounwind uwtable
define internal i32 @_get_return_codes(ptr noundef %0, ptr noundef %1) #0 {
  %3 = alloca i32, align 4
  %4 = alloca ptr, align 8
  %5 = alloca ptr, align 8
  %6 = alloca ptr, align 8
  %7 = alloca ptr, align 8
  %8 = alloca ptr, align 8
  %9 = alloca i32, align 4
  store ptr %0, ptr %4, align 8
  store ptr %1, ptr %5, align 8
  call void @llvm.lifetime.start.p0(i64 8, ptr %6) #9
  %10 = load ptr, ptr %4, align 8
  store ptr %10, ptr %6, align 8
  call void @llvm.lifetime.start.p0(i64 8, ptr %7) #9
  %11 = load ptr, ptr %5, align 8
  store ptr %11, ptr %7, align 8
  call void @llvm.lifetime.start.p0(i64 8, ptr %8) #9
  %12 = load ptr, ptr @slurmdbd_conn, align 8
  %13 = getelementptr inbounds nuw %struct.persist_conn_t, ptr %12, i32 0, i32 21
  %14 = load i16, ptr %13, align 8
  %15 = load ptr, ptr %6, align 8
  %16 = load ptr, ptr %7, align 8
  %17 = call i32 @_unpack_return_code(i16 noundef zeroext %14, ptr noundef %15, ptr noundef %16)
  %18 = load ptr, ptr %7, align 8
  %19 = getelementptr inbounds nuw %struct.rc_msg_t, ptr %18, i32 0, i32 1
  store i32 %17, ptr %19, align 8
  %20 = icmp ne i32 %17, 0
  br i1 %20, label %21, label %22

21:                                               ; preds = %2
  store i32 -1, ptr %3, align 4
  store i32 1, ptr %9, align 4
  br label %38

22:                                               ; preds = %2
  %23 = load ptr, ptr @agent_list, align 8
  %24 = call ptr @slurm_list_dequeue(ptr noundef %23)
  store ptr %24, ptr %8, align 8
  %25 = icmp ne ptr %24, null
  br i1 %25, label %26, label %35

26:                                               ; preds = %22
  br label %27

27:                                               ; preds = %26
  %28 = load ptr, ptr %8, align 8
  %29 = icmp ne ptr %28, null
  br i1 %29, label %30, label %32

30:                                               ; preds = %27
  %31 = load ptr, ptr %8, align 8
  call void @slurm_free_buf(ptr noundef %31)
  br label %32

32:                                               ; preds = %30, %27
  store ptr null, ptr %8, align 8
  br label %33

33:                                               ; preds = %32
  br label %34

34:                                               ; preds = %33
  br label %37

35:                                               ; preds = %22
  %36 = call i32 (ptr, ...) @slurm_error(ptr noundef @.str.40)
  br label %37

37:                                               ; preds = %35, %34
  store i32 0, ptr %3, align 4
  store i32 1, ptr %9, align 4
  br label %38

38:                                               ; preds = %37, %21
  call void @llvm.lifetime.end.p0(i64 8, ptr %8) #9
  call void @llvm.lifetime.end.p0(i64 8, ptr %7) #9
  call void @llvm.lifetime.end.p0(i64 8, ptr %6) #9
  %39 = load i32, ptr %3, align 4
  ret i32 %39
}