; Function Attrs: nounwind uwtable
define internal range(i32 -1, 1) i32 @_get_return_codes(ptr noundef %0, ptr noundef captures(none) %1) #0 {
  %3 = tail call fastcc i32 @_unpack_return_code(ptr noundef %0, ptr noundef %1)
  %4 = getelementptr inbounds nuw i8, ptr %1, i64 8
  store i32 %3, ptr %4, align 8
  %.not = icmp eq i32 %3, 0
  br i1 %.not, label %5, label %11

5:                                                ; preds = %2
  %6 = load ptr, ptr @agent_list, align 8
  %7 = tail call ptr @slurm_list_dequeue(ptr noundef %6) #13
  %.not8 = icmp eq ptr %7, null
  br i1 %.not8, label %9, label %8

8:                                                ; preds = %5
  tail call void @slurm_free_buf(ptr noundef nonnull %7) #13
  br label %11

9:                                                ; preds = %5
  %10 = tail call i32 (ptr, ...) @slurm_error(ptr noundef nonnull @.str.40) #13
  br label %11

11:                                               ; preds = %8, %9, %2
  %.0 = phi i32 [ -1, %2 ], [ 0, %9 ], [ 0, %8 ]
  ret i32 %.0
}